; Function Attrs: mustprogress uwtable
define hidden void @_ZN3smt13theory_recfun12pop_scope_ehEj(ptr noundef nonnull align 8 dereferenceable(212) %this, i32 noundef %num_scopes) unnamed_addr #3 align 2 {
entry:
  tail call void @_ZN3smt6theory12pop_scope_ehEj(ptr noundef nonnull align 8 dereferenceable(53) %this, i32 noundef %num_scopes)
  %m_preds_lim = getelementptr inbounds i8, ptr %this, i64 184
  %0 = load ptr, ptr %m_preds_lim, align 8
  %cmp.i = icmp eq ptr %0, null
  br i1 %cmp.i, label %_ZN6vectorIjLb0EjE6shrinkEj.exit, label %if.then.i

if.then.i:                                        ; preds = %entry
  %arrayidx.i = getelementptr inbounds i8, ptr %0, i64 -4
  %1 = load i32, ptr %arrayidx.i, align 4
  %sub = sub i32 %1, %num_scopes
  store i32 %sub, ptr %arrayidx.i, align 4
  br label %_ZN6vectorIjLb0EjE6shrinkEj.exit

_ZN6vectorIjLb0EjE6shrinkEj.exit:                 ; preds = %entry, %if.then.i
  ret void
}